target datalayout = "e-m:e-p270:32:32-p271:32:32-p272:64:64-i64:64-i128:128-f80:128-n8:16:32:64-S128"
target triple = "x86_64-pc-linux-gnu"

@.str = private unnamed_addr constant [78 x i8] c"Output file %s is same as input file %s; appending would create infinite loop\00", align 1

; Function Attrs: null_pointer_is_valid sspstrong uwtable
define zeroext i1 @merge_files(ptr noundef %0, i32 noundef %1, ptr noundef %2, i32 noundef %3, i1 noundef zeroext %4, i32 noundef %5, i32 noundef %6, ptr noundef %7, ptr noundef %8, i32 noundef %9) #0 {
  %11 = alloca i1, align 1
  %12 = alloca ptr, align 8
  %13 = alloca i32, align 4
  %14 = alloca ptr, align 8
  %15 = alloca i32, align 4
  %16 = alloca i8, align 1
  %17 = alloca i32, align 4
  %18 = alloca i32, align 4
  %19 = alloca ptr, align 8
  %20 = alloca ptr, align 8
  %21 = alloca i32, align 4
  %22 = alloca i32, align 4
  %23 = alloca i32, align 4
  store ptr %0, ptr %12, align 8
  store i32 %1, ptr %13, align 4
  store ptr %2, ptr %14, align 8
  store i32 %3, ptr %15, align 4
  %24 = zext i1 %4 to i8
  store i8 %24, ptr %16, align 1
  store i32 %5, ptr %17, align 4
  store i32 %6, ptr %18, align 4
  store ptr %7, ptr %19, align 8
  store ptr %8, ptr %20, align 8
  store i32 %9, ptr %21, align 4
  br label %25

25:                                               ; preds = %10
  br label %26

26:                                               ; preds = %25
  br label %27

27:                                               ; preds = %26
  br label %28

28:                                               ; preds = %27
  br label %29

29:                                               ; preds = %28
  br label %30

30:                                               ; preds = %29
  %31 = load i8, ptr %16, align 1, !range !8, !noundef !9
  %32 = trunc i8 %31 to i1
  br i1 %32, label %33, label %61

33:                                               ; preds = %30
  call void @llvm.lifetime.start.p0(i64 4, ptr %22) #14
  store i32 0, ptr %22, align 4
  br label %34

34:                                               ; preds = %54, %33
  %35 = load i32, ptr %22, align 4
  %36 = load i32, ptr %15, align 4
  %37 = icmp ult i32 %35, %36
  br i1 %37, label %38, label %57

38:                                               ; preds = %34
  %39 = load ptr, ptr %12, align 8
  %40 = load ptr, ptr %14, align 8
  %41 = load i32, ptr %22, align 4
  %42 = zext i32 %41 to i64
  %43 = getelementptr ptr, ptr %40, i64 %42
  %44 = load ptr, ptr %43, align 8
  %45 = call zeroext i1 @files_identical(ptr noundef %39, ptr noundef %44)
  br i1 %45, label %46, label %53

46:                                               ; preds = %38
  %47 = load ptr, ptr %12, align 8
  %48 = load ptr, ptr %14, align 8
  %49 = load i32, ptr %22, align 4
  %50 = zext i32 %49 to i64
  %51 = getelementptr ptr, ptr %48, i64 %50
  %52 = load ptr, ptr %51, align 8
  call void (ptr, ...) @report_failure(ptr noundef @.str, ptr noundef %47, ptr noundef %52)
  store i1 false, ptr %11, align 1
  store i32 1, ptr %23, align 4
  br label %58

53:                                               ; preds = %38
  br label %54

54:                                               ; preds = %53
  %55 = load i32, ptr %22, align 4
  %56 = add i32 %55, 1
  store i32 %56, ptr %22, align 4
  br label %34, !llvm.loop !10

57:                                               ; preds = %34
  store i32 0, ptr %23, align 4
  br label %58

58:                                               ; preds = %57, %46
  call void @llvm.lifetime.end.p0(i64 4, ptr %22) #14
  %59 = load i32, ptr %23, align 4
  switch i32 %59, label %76 [
    i32 0, label %60
    i32 1, label %74
  ]

60:                                               ; preds = %58
  br label %61

61:                                               ; preds = %60, %30
  %62 = load ptr, ptr %12, align 8
  %63 = load i32, ptr %13, align 4
  %64 = load ptr, ptr %14, align 8
  %65 = load i32, ptr %15, align 4
  %66 = load i8, ptr %16, align 1, !range !8, !noundef !9
  %67 = trunc i8 %66 to i1
  %68 = load i32, ptr %17, align 4
  %69 = load i32, ptr %18, align 4
  %70 = load ptr, ptr %19, align 8
  %71 = load ptr, ptr %20, align 8
  %72 = load i32, ptr %21, align 4
  %73 = call zeroext i1 @merge_files_common(ptr noundef %62, ptr noundef null, ptr noundef null, i32 noundef %63, ptr noundef %64, i32 noundef %65, i1 noundef zeroext %67, i32 noundef %68, i32 noundef %69, ptr noundef %70, ptr noundef %71, i32 noundef %72)
  store i1 %73, ptr %11, align 1
  br label %74

74:                                               ; preds = %61, %58
  %75 = load i1, ptr %11, align 1
  ret i1 %75

76:                                               ; preds = %58
  unreachable
}