; Function Attrs: null_pointer_is_valid sspstrong uwtable
define zeroext i1 @merge_files(ptr noundef %0, i32 noundef %1, ptr noundef readonly captures(none) %2, i32 noundef %3, i1 noundef zeroext %4, i32 noundef %5, i32 noundef %6, ptr noundef %7, ptr noundef captures(address_is_null) %8, i32 noundef %9) local_unnamed_addr #0 {
  %11 = icmp ne i32 %3, 0
  %or.cond = and i1 %4, %11
  br i1 %or.cond, label %.lr.ph.preheader, label %.thread

.lr.ph.preheader:                                 ; preds = %10
  %wide.trip.count = zext i32 %3 to i64
  br label %.lr.ph

12:                                               ; preds = %.lr.ph
  %indvars.iv.next = add nuw nsw i64 %indvars.iv, 1
  %exitcond.not = icmp eq i64 %indvars.iv.next, %wide.trip.count
  br i1 %exitcond.not, label %.thread, label %.lr.ph, !llvm.loop !8

.lr.ph:                                           ; preds = %.lr.ph.preheader, %12
  %indvars.iv = phi i64 [ 0, %.lr.ph.preheader ], [ %indvars.iv.next, %12 ]
  %13 = getelementptr ptr, ptr %2, i64 %indvars.iv
  %14 = load ptr, ptr %13, align 8
  %15 = tail call zeroext i1 @files_identical(ptr noundef %0, ptr noundef %14)
  br i1 %15, label %16, label %12

16:                                               ; preds = %.lr.ph
  %17 = getelementptr ptr, ptr %2, i64 %indvars.iv
  %18 = load ptr, ptr %17, align 8
  tail call void (ptr, ...) @report_failure(ptr noundef nonnull @.str, ptr noundef %0, ptr noundef %18)
  br label %20

.thread:                                          ; preds = %12, %10
  %19 = tail call fastcc zeroext i1 @merge_files_common(ptr noundef %0, ptr noundef null, ptr noundef null, i32 noundef %1, ptr noundef %2, i32 noundef %3, i1 noundef zeroext %4, i32 noundef %5, i32 noundef %6, ptr noundef %7, ptr noundef %8, i32 noundef %9)
  br label %20

20:                                               ; preds = %16, %.thread
  %.1 = phi i1 [ false, %16 ], [ %19, %.thread ]
  ret i1 %.1
}